(dp0
S'roof_area'
p1
F5000.0
sS'batt_rebate_utility_max'
p2
NsS'offtaker_discount_rate'
p3
NsS'owner_tax_rate'
p4
NsS'pv_itc_federal'
p5
NsS'demand_charge'
p6
(lp7
F10.0
aF10.0
aF10.0
aF10.0
aF10.0
aF10.0
aF10.0
aF10.0
aF10.0
aF10.0
aF10.0
aF10.0
asS'batt_can_gridcharge'
p8
I01
sS'batt_replacement_cost_kwh'
p9
NsS'longitude'
p10
F-118.1164613
sS'batt_itc_utility_max'
p11
NsS'batt_rebate_state_max'
p12
NsS'pv_rebate_utility'
p13
NsS'batt_kwh_min'
p14
NsS'pv_itc_utility'
p15
NsS'pv_rebate_federal'
p16
NsS'analysis_period'
p17
NsS'pv_rebate_state'
p18
NsS'offtaker_tax_rate'
p19
NsS'pv_macrs_schedule'
p20
I5
sS'load_profile_name'
p21
S'RetailStore'
p22
sS'tilt'
p23
NsS'crit_load_factor'
p24
F1.0
sS'pv_rebate_federal_max'
p25
NsS'batt_replacement_cost_kw'
p26
NsS'batt_rebate_federal'
p27
NsS'pv_itc_state_max'
p28
NsS'pv_itc_state'
p29
NsS'batt_kw_max'
p30
NsS'pv_pbi'
p31
NsS'pv_pbi_years'
p32
NsS'batt_inverter_efficiency'
p33
NsS'batt_rebate_utility'
p34
NsS'batt_soc_init'
p35
NsS'batt_efficiency'
p36
NsS'batt_kwh_max'
p37
NsS'blended_utility_rate'
p38
(lp39
F0.10132
aF0.10132
aF0.10132
aF0.10132
aF0.10132
aF0.10132
aF0.10132
aF0.10132
aF0.10132
aF0.10132
aF0.10132
aF0.10132
asS'batt_soc_min'
p40
NsS'batt_itc_state_max'
p41
NsS'batt_rebate_state'
p42
NsS'batt_itc_utility'
p43
NsS'batt_macrs_schedule'
p44
I5
sS'batt_replacement_year_kwh'
p45
NsS'batt_itc_federal_max'
p46
NsS'owner_discount_rate'
p47
NsS'batt_replacement_year_kw'
p48
NsS'module_type'
p49
I1
sS'batt_kw_min'
p50
NsS'array_type'
p51
I1
sS'rate_escalation'
p52
NsS'batt_cost_kw'
p53
NsS'pv_kw_min'
p54
NsS'pv_pbi_max'
p55
NsS'pv_kw_max'
p56
NsS'land_area'
p57
F1.0
sS'dc_ac_ratio'
p58
NsS'net_metering_limit'
p59
NsS'batt_itc_state'
p60
NsS'batt_itc_federal'
p61
NsS'latitude'
p62
F34.5794343
sS'batt_rebate_federal_max'
p63
NsS'losses'
p64
NsS'load_monthly_kwh'
p65
(lp66
I100
aI200
aI250
aI300
aI350
aI350
aI400
aI400
aI350
aI250
aI250
aI200
asS'pv_itc_utility_max'
p67
NsS'pv_rebate_state_max'
p68
NsS'pv_cost'
p69
NsS'rate_inflation'
p70
NsS'azimuth'
p71
NsS'pv_itc_federal_max'
p72
NsS'pv_pbi_system_max'
p73
NsS'pv_rebate_utility_max'
p74
NsS'batt_rectifier_efficiency'
p75
NsS'pv_om'
p76
NsS'batt_cost_kwh'
p77
Ns.